; Function Attrs: mustprogress nounwind uwtable
define dso_local noundef i32 @_ZN5clang19PreprocessingRecord22allocateLoadedEntitiesEj(ptr noundef nonnull align 8 dereferenceable(240) %0, i32 noundef %1) local_unnamed_addr #3 align 2 {
  %3 = getelementptr inbounds nuw i8, ptr %0, i64 136
  %4 = getelementptr inbounds i8, ptr %0, i64 144
  %5 = load ptr, ptr %4, align 8
  %6 = load ptr, ptr %3, align 8
  %7 = ptrtoint ptr %5 to i64
  %8 = ptrtoint ptr %6 to i64
  %9 = sub i64 %7, %8
  %10 = ashr exact i64 %9, 3
  %11 = zext i32 %1 to i64
  %12 = add nsw i64 %10, %11
  %13 = icmp ugt i64 %12, %10
  br i1 %13, label %14, label %15

14:                                               ; preds = %2
  tail call void @_ZNSt6vectorIPN5clang18PreprocessedEntityESaIS2_EE17_M_default_appendEm(ptr noundef nonnull align 8 dereferenceable(24) %3, i64 noundef %11)
  br label %_ZNSt6vectorIPN5clang18PreprocessedEntityESaIS2_EE6resizeEm.exit

15:                                               ; preds = %2
  %16 = icmp ult i64 %12, %10
  br i1 %16, label %17, label %_ZNSt6vectorIPN5clang18PreprocessedEntityESaIS2_EE6resizeEm.exit

17:                                               ; preds = %15
  %18 = getelementptr inbounds ptr, ptr %6, i64 %12
  %.not.i.i = icmp eq ptr %5, %18
  br i1 %.not.i.i, label %_ZNSt6vectorIPN5clang18PreprocessedEntityESaIS2_EE6resizeEm.exit, label %19

19:                                               ; preds = %17
  store ptr %18, ptr %4, align 8
  br label %_ZNSt6vectorIPN5clang18PreprocessedEntityESaIS2_EE6resizeEm.exit

_ZNSt6vectorIPN5clang18PreprocessedEntityESaIS2_EE6resizeEm.exit: ; preds = %14, %15, %17, %19
  %20 = trunc i64 %10 to i32
  ret i32 %20
}